; Function Attrs: mustprogress nofree norecurse nosync nounwind willreturn memory(argmem: write) uwtable
define void @Abs_ParSetDefaults(ptr noundef writeonly captures(none) initializes((0, 136)) %0) local_unnamed_addr #0 {
  %2 = getelementptr inbounds nuw i8, ptr %0, i64 8
  tail call void @llvm.memset.p0.i64(ptr noundef nonnull align 8 dereferenceable(136) %0, i8 0, i64 136, i1 false)
  store i32 4, ptr %2, align 8, !tbaa !3
  %3 = getelementptr inbounds nuw i8, ptr %0, i64 16
  store i32 1000, ptr %3, align 8, !tbaa !10
  %4 = getelementptr inbounds nuw i8, ptr %0, i64 20
  store i32 1000, ptr %4, align 4, !tbaa !11
  %5 = getelementptr inbounds nuw i8, ptr %0, i64 24
  store i32 200, ptr %5, align 8, !tbaa !12
  %6 = getelementptr inbounds nuw i8, ptr %0, i64 28
  store i32 70, ptr %6, align 4, !tbaa !13
  %7 = getelementptr inbounds nuw i8, ptr %0, i64 36
  store i32 0, ptr %7, align 4, !tbaa !14
  %8 = getelementptr inbounds nuw i8, ptr %0, i64 44
  store i32 30, ptr %8, align 4, !tbaa !15
  %9 = getelementptr inbounds nuw i8, ptr %0, i64 52
  store i32 0, ptr %9, align 4, !tbaa !16
  %10 = getelementptr inbounds nuw i8, ptr %0, i64 56
  store i32 1, ptr %10, align 8, !tbaa !17
  %11 = getelementptr inbounds nuw i8, ptr %0, i64 120
  store i32 -1, ptr %11, align 8, !tbaa !18
  %12 = getelementptr inbounds nuw i8, ptr %0, i64 124
  store i32 -1, ptr %12, align 4, !tbaa !19
  %13 = getelementptr inbounds nuw i8, ptr %0, i64 132
  store i32 2, ptr %13, align 4, !tbaa !20
  ret void
}